; Function Attrs: mustprogress uwtable
define noundef zeroext i1 @_ZNK32pxrInternal_v0_24__pxrReserved__17UsdUsdzFileFormat11WriteToFileERKNS_8SdfLayerERKNSt7__cxx1112basic_stringIcSt11char_traitsIcESaIcEEESB_RKSt3mapIS9_S9_St4lessIS9_ESaISt4pairISA_S9_EEE(ptr nonnull readnone align 8 captures(none) %0, ptr nonnull readnone align 8 captures(none) %1, ptr nonnull readnone align 8 captures(none) %2, ptr nonnull readnone align 8 captures(none) %3, ptr nonnull readnone align 8 captures(none) %4) unnamed_addr #1 align 2 {
  %6 = alloca %"class.pxrInternal_v0_24__pxrReserved__::TfCallContext", align 8
  store ptr @.str.12, ptr %6, align 8
  %7 = getelementptr inbounds nuw i8, ptr %6, i64 8
  store ptr @__func__._ZNK32pxrInternal_v0_24__pxrReserved__17UsdUsdzFileFormat11WriteToFileERKNS_8SdfLayerERKNSt7__cxx1112basic_stringIcSt11char_traitsIcESaIcEEESB_RKSt3mapIS9_S9_St4lessIS9_ESaISt4pairISA_S9_EEE, ptr %7, align 8
  %8 = getelementptr inbounds nuw i8, ptr %6, i64 16
  store i64 171, ptr %8, align 8
  %9 = getelementptr inbounds nuw i8, ptr %6, i64 24
  store ptr @__PRETTY_FUNCTION__._ZNK32pxrInternal_v0_24__pxrReserved__17UsdUsdzFileFormat11WriteToFileERKNS_8SdfLayerERKNSt7__cxx1112basic_stringIcSt11char_traitsIcESaIcEEESB_RKSt3mapIS9_S9_St4lessIS9_ESaISt4pairISA_S9_EEE, ptr %9, align 8
  %10 = getelementptr inbounds nuw i8, ptr %6, i64 32
  store i8 0, ptr %10, align 8
  call void (ptr, i32, ptr, ...) @_ZN32pxrInternal_v0_24__pxrReserved__18Tf_PostErrorHelperERKNS_13TfCallContextENS_16TfDiagnosticTypeEPKcz(ptr noundef nonnull align 8 dereferenceable(33) %6, i32 noundef 1, ptr noundef nonnull @.str.13)
  ret i1 false
}